; Function Attrs: mustprogress nofree norecurse nosync nounwind willreturn memory(argmem: readwrite) uwtable
define hidden void @_ZN12opencv_caffe16PoolingParameter12InternalSwapEPS0_(ptr noundef nonnull align 8 captures(none) dereferenceable(80) %0, ptr noundef captures(none) %1) local_unnamed_addr #13 align 2 {
  %3 = getelementptr inbounds nuw i8, ptr %0, i64 8
  %4 = getelementptr inbounds nuw i8, ptr %1, i64 8
  %5 = load i64, ptr %3, align 8, !tbaa !42
  %6 = load i64, ptr %4, align 8, !tbaa !42
  store i64 %6, ptr %3, align 8, !tbaa !42
  store i64 %5, ptr %4, align 8, !tbaa !42
  %7 = getelementptr inbounds nuw i8, ptr %0, i64 16
  %8 = getelementptr inbounds nuw i8, ptr %1, i64 16
  %9 = load i32, ptr %7, align 8, !tbaa !71
  %10 = load i32, ptr %8, align 4, !tbaa !71
  store i32 %10, ptr %7, align 8, !tbaa !71
  store i32 %9, ptr %8, align 4, !tbaa !71
  %11 = getelementptr inbounds nuw i8, ptr %0, i64 24
  %12 = getelementptr inbounds nuw i8, ptr %1, i64 24
  %.0.copyload.i.i = load i128, ptr %11, align 8
  tail call void @llvm.memcpy.p0.p0.i64(ptr noundef nonnull align 8 dereferenceable(16) %11, ptr noundef nonnull align 1 dereferenceable(16) %12, i64 16, i1 false)
  store i128 %.0.copyload.i.i, ptr %12, align 1
  %13 = getelementptr inbounds nuw i8, ptr %0, i64 40
  %14 = getelementptr inbounds nuw i8, ptr %1, i64 40
  %.0.copyload.i.i.i = load i128, ptr %13, align 8
  tail call void @llvm.memcpy.p0.p0.i64(ptr noundef nonnull align 8 dereferenceable(16) %13, ptr noundef nonnull align 1 dereferenceable(16) %14, i64 16, i1 false)
  store i128 %.0.copyload.i.i.i, ptr %14, align 1
  %15 = getelementptr inbounds nuw i8, ptr %0, i64 56
  %16 = getelementptr inbounds nuw i8, ptr %1, i64 56
  %.0.copyload.i.i.i.i = load i64, ptr %15, align 8
  %17 = load i64, ptr %16, align 1
  store i64 %17, ptr %15, align 8
  store i64 %.0.copyload.i.i.i.i, ptr %16, align 1
  %18 = getelementptr inbounds nuw i8, ptr %0, i64 64
  %19 = getelementptr inbounds nuw i8, ptr %1, i64 64
  %.0.copyload.i.i.i.i.i = load i8, ptr %18, align 8
  %20 = load i8, ptr %19, align 1
  store i8 %20, ptr %18, align 8
  store i8 %.0.copyload.i.i.i.i.i, ptr %19, align 1
  %21 = getelementptr inbounds nuw i8, ptr %0, i64 68
  %22 = getelementptr inbounds nuw i8, ptr %1, i64 68
  %23 = load i32, ptr %21, align 4, !tbaa !71
  %24 = load i32, ptr %22, align 4, !tbaa !71
  store i32 %24, ptr %21, align 4, !tbaa !71
  store i32 %23, ptr %22, align 4, !tbaa !71
  %25 = getelementptr inbounds nuw i8, ptr %0, i64 72
  %26 = getelementptr inbounds nuw i8, ptr %1, i64 72
  %27 = load i8, ptr %25, align 8, !tbaa !133, !range !126, !noundef !127
  %28 = load i8, ptr %26, align 1, !tbaa !133, !range !126, !noundef !127
  store i8 %28, ptr %25, align 8, !tbaa !133
  store i8 %27, ptr %26, align 1, !tbaa !133
  ret void
}